; Function Attrs: inlinehint nofree norecurse nosync nounwind memory(argmem: readwrite) uwtable
define internal void @avg_pixels8_8_c(ptr noundef captures(none) %0, ptr noundef readonly captures(none) %1, i64 noundef %2, i32 noundef %3) #2 {
  %5 = icmp sgt i32 %3, 0
  br i1 %5, label %.lr.ph, label %._crit_edge

.lr.ph:                                           ; preds = %4, %.lr.ph
  %.016 = phi i32 [ %24, %.lr.ph ], [ 0, %4 ]
  %.01215 = phi ptr [ %23, %.lr.ph ], [ %0, %4 ]
  %.01314 = phi ptr [ %22, %.lr.ph ], [ %1, %4 ]
  %6 = load i32, ptr %.01215, align 4, !tbaa !9
  %7 = load i32, ptr %.01314, align 1, !tbaa !8
  %8 = or i32 %7, %6
  %9 = xor i32 %7, %6
  %10 = lshr i32 %9, 1
  %11 = and i32 %10, 2139062143
  %12 = sub i32 %8, %11
  store i32 %12, ptr %.01215, align 4, !tbaa !9
  %13 = getelementptr inbounds nuw i8, ptr %.01215, i64 4
  %14 = load i32, ptr %13, align 4, !tbaa !9
  %15 = getelementptr inbounds nuw i8, ptr %.01314, i64 4
  %16 = load i32, ptr %15, align 1, !tbaa !8
  %17 = or i32 %16, %14
  %18 = xor i32 %16, %14
  %19 = lshr i32 %18, 1
  %20 = and i32 %19, 2139062143
  %21 = sub i32 %17, %20
  store i32 %21, ptr %13, align 4, !tbaa !9
  %22 = getelementptr inbounds i8, ptr %.01314, i64 %2
  %23 = getelementptr inbounds i8, ptr %.01215, i64 %2
  %24 = add nuw nsw i32 %.016, 1
  %exitcond.not = icmp eq i32 %24, %3
  br i1 %exitcond.not, label %._crit_edge, label %.lr.ph, !llvm.loop !27

._crit_edge:                                      ; preds = %.lr.ph, %4
  ret void
}